target datalayout = "e-m:e-p270:32:32-p271:32:32-p272:64:64-i64:64-i128:128-f80:128-n8:16:32:64-S128"
target triple = "x86_64-pc-linux-gnu"

%struct.stbtt_bakedchar = type { i16, i16, i16, i16, float, float, float }
%struct.stbtt_aligned_quad = type { float, float, float, float, float, float, float, float }

; Function Attrs: mustprogress nounwind uwtable
define linkonce_odr dso_local noundef float @_ZSt5floorf(float noundef %0) #1 comdat {
  %2 = alloca float, align 4
  store float %0, ptr %2, align 4
  %3 = load float, ptr %2, align 4
  %4 = call float @llvm.floor.f32(float %3)
  ret float %4
}

; Function Attrs: mustprogress uwtable
define dso_local void @stbtt_GetBakedQuad(ptr noundef %0, i32 noundef %1, i32 noundef %2, i32 noundef %3, ptr noundef %4, ptr noundef %5, ptr noundef %6, i32 noundef %7) #0 {
  %9 = alloca ptr, align 8
  %10 = alloca i32, align 4
  %11 = alloca i32, align 4
  %12 = alloca i32, align 4
  %13 = alloca ptr, align 8
  %14 = alloca ptr, align 8
  %15 = alloca ptr, align 8
  %16 = alloca i32, align 4
  %17 = alloca float, align 4
  %18 = alloca float, align 4
  %19 = alloca float, align 4
  %20 = alloca ptr, align 8
  %21 = alloca i32, align 4
  %22 = alloca i32, align 4
  store ptr %0, ptr %9, align 8
  store i32 %1, ptr %10, align 4
  store i32 %2, ptr %11, align 4
  store i32 %3, ptr %12, align 4
  store ptr %4, ptr %13, align 8
  store ptr %5, ptr %14, align 8
  store ptr %6, ptr %15, align 8
  store i32 %7, ptr %16, align 4
  %23 = load i32, ptr %16, align 4
  %24 = icmp ne i32 %23, 0
  %25 = select i1 %24, float 0.000000e+00, float -5.000000e-01
  store float %25, ptr %17, align 4
  %26 = load i32, ptr %10, align 4
  %27 = sitofp i32 %26 to float
  %28 = fdiv float 1.000000e+00, %27
  store float %28, ptr %18, align 4
  %29 = load i32, ptr %11, align 4
  %30 = sitofp i32 %29 to float
  %31 = fdiv float 1.000000e+00, %30
  store float %31, ptr %19, align 4
  %32 = load ptr, ptr %9, align 8
  %33 = load i32, ptr %12, align 4
  %34 = sext i32 %33 to i64
  %35 = getelementptr inbounds %struct.stbtt_bakedchar, ptr %32, i64 %34
  store ptr %35, ptr %20, align 8
  %36 = load ptr, ptr %13, align 8
  %37 = load float, ptr %36, align 4
  %38 = load ptr, ptr %20, align 8
  %39 = getelementptr inbounds %struct.stbtt_bakedchar, ptr %38, i32 0, i32 4
  %40 = load float, ptr %39, align 4
  %41 = fadd float %37, %40
  %42 = fadd float %41, 5.000000e-01
  %43 = call noundef float @_ZSt5floorf(float noundef %42)
  %44 = fptosi float %43 to i32
  store i32 %44, ptr %21, align 4
  %45 = load ptr, ptr %14, align 8
  %46 = load float, ptr %45, align 4
  %47 = load ptr, ptr %20, align 8
  %48 = getelementptr inbounds %struct.stbtt_bakedchar, ptr %47, i32 0, i32 5
  %49 = load float, ptr %48, align 4
  %50 = fadd float %46, %49
  %51 = fadd float %50, 5.000000e-01
  %52 = call noundef float @_ZSt5floorf(float noundef %51)
  %53 = fptosi float %52 to i32
  store i32 %53, ptr %22, align 4
  %54 = load i32, ptr %21, align 4
  %55 = sitofp i32 %54 to float
  %56 = load float, ptr %17, align 4
  %57 = fadd float %55, %56
  %58 = load ptr, ptr %15, align 8
  %59 = getelementptr inbounds %struct.stbtt_aligned_quad, ptr %58, i32 0, i32 0
  store float %57, ptr %59, align 4
  %60 = load i32, ptr %22, align 4
  %61 = sitofp i32 %60 to float
  %62 = load float, ptr %17, align 4
  %63 = fadd float %61, %62
  %64 = load ptr, ptr %15, align 8
  %65 = getelementptr inbounds %struct.stbtt_aligned_quad, ptr %64, i32 0, i32 1
  store float %63, ptr %65, align 4
  %66 = load i32, ptr %21, align 4
  %67 = load ptr, ptr %20, align 8
  %68 = getelementptr inbounds %struct.stbtt_bakedchar, ptr %67, i32 0, i32 2
  %69 = load i16, ptr %68, align 4
  %70 = zext i16 %69 to i32
  %71 = add nsw i32 %66, %70
  %72 = load ptr, ptr %20, align 8
  %73 = getelementptr inbounds %struct.stbtt_bakedchar, ptr %72, i32 0, i32 0
  %74 = load i16, ptr %73, align 4
  %75 = zext i16 %74 to i32
  %76 = sub nsw i32 %71, %75
  %77 = sitofp i32 %76 to float
  %78 = load float, ptr %17, align 4
  %79 = fadd float %77, %78
  %80 = load ptr, ptr %15, align 8
  %81 = getelementptr inbounds %struct.stbtt_aligned_quad, ptr %80, i32 0, i32 4
  store float %79, ptr %81, align 4
  %82 = load i32, ptr %22, align 4
  %83 = load ptr, ptr %20, align 8
  %84 = getelementptr inbounds %struct.stbtt_bakedchar, ptr %83, i32 0, i32 3
  %85 = load i16, ptr %84, align 2
  %86 = zext i16 %85 to i32
  %87 = add nsw i32 %82, %86
  %88 = load ptr, ptr %20, align 8
  %89 = getelementptr inbounds %struct.stbtt_bakedchar, ptr %88, i32 0, i32 1
  %90 = load i16, ptr %89, align 2
  %91 = zext i16 %90 to i32
  %92 = sub nsw i32 %87, %91
  %93 = sitofp i32 %92 to float
  %94 = load float, ptr %17, align 4
  %95 = fadd float %93, %94
  %96 = load ptr, ptr %15, align 8
  %97 = getelementptr inbounds %struct.stbtt_aligned_quad, ptr %96, i32 0, i32 5
  store float %95, ptr %97, align 4
  %98 = load ptr, ptr %20, align 8
  %99 = getelementptr inbounds %struct.stbtt_bakedchar, ptr %98, i32 0, i32 0
  %100 = load i16, ptr %99, align 4
  %101 = zext i16 %100 to i32
  %102 = sitofp i32 %101 to float
  %103 = load float, ptr %18, align 4
  %104 = fmul float %102, %103
  %105 = load ptr, ptr %15, align 8
  %106 = getelementptr inbounds %struct.stbtt_aligned_quad, ptr %105, i32 0, i32 2
  store float %104, ptr %106, align 4
  %107 = load ptr, ptr %20, align 8
  %108 = getelementptr inbounds %struct.stbtt_bakedchar, ptr %107, i32 0, i32 1
  %109 = load i16, ptr %108, align 2
  %110 = zext i16 %109 to i32
  %111 = sitofp i32 %110 to float
  %112 = load float, ptr %19, align 4
  %113 = fmul float %111, %112
  %114 = load ptr, ptr %15, align 8
  %115 = getelementptr inbounds %struct.stbtt_aligned_quad, ptr %114, i32 0, i32 3
  store float %113, ptr %115, align 4
  %116 = load ptr, ptr %20, align 8
  %117 = getelementptr inbounds %struct.stbtt_bakedchar, ptr %116, i32 0, i32 2
  %118 = load i16, ptr %117, align 4
  %119 = zext i16 %118 to i32
  %120 = sitofp i32 %119 to float
  %121 = load float, ptr %18, align 4
  %122 = fmul float %120, %121
  %123 = load ptr, ptr %15, align 8
  %124 = getelementptr inbounds %struct.stbtt_aligned_quad, ptr %123, i32 0, i32 6
  store float %122, ptr %124, align 4
  %125 = load ptr, ptr %20, align 8
  %126 = getelementptr inbounds %struct.stbtt_bakedchar, ptr %125, i32 0, i32 3
  %127 = load i16, ptr %126, align 2
  %128 = zext i16 %127 to i32
  %129 = sitofp i32 %128 to float
  %130 = load float, ptr %19, align 4
  %131 = fmul float %129, %130
  %132 = load ptr, ptr %15, align 8
  %133 = getelementptr inbounds %struct.stbtt_aligned_quad, ptr %132, i32 0, i32 7
  store float %131, ptr %133, align 4
  %134 = load ptr, ptr %20, align 8
  %135 = getelementptr inbounds %struct.stbtt_bakedchar, ptr %134, i32 0, i32 6
  %136 = load float, ptr %135, align 4
  %137 = load ptr, ptr %13, align 8
  %138 = load float, ptr %137, align 4
  %139 = fadd float %138, %136
  store float %139, ptr %137, align 4
  ret void
}